; Function Attrs: nounwind uwtable
define ptr @l_Lean_Meta_visitLambda_visit___rarg___lambda__2(ptr noundef %0, ptr noundef %1, ptr noundef %2, ptr noundef %3, ptr noundef %4, ptr noundef %5, i8 noundef zeroext %6, ptr noundef %7, ptr readnone captures(none) %8) local_unnamed_addr #0 {
  %10 = ptrtoint ptr %2 to i64
  %11 = and i64 %10, 1
  %.not = icmp eq i64 %11, 0
  br i1 %.not, label %12, label %lean_inc.exit19

12:                                               ; preds = %9
  %.val.i = load i32, ptr %2, align 4, !tbaa !4
  %13 = icmp sgt i32 %.val.i, 0
  br i1 %13, label %14, label %16, !prof !13

14:                                               ; preds = %12
  %15 = add nuw i32 %.val.i, 1
  store i32 %15, ptr %2, align 4, !tbaa !4
  br label %lean_inc.exit19

16:                                               ; preds = %12
  %.not.i = icmp eq i32 %.val.i, 0
  br i1 %.not.i, label %lean_inc.exit19, label %17

17:                                               ; preds = %16
  tail call void @lean_inc_ref_cold(ptr noundef nonnull %2) #4
  br label %lean_inc.exit19

lean_inc.exit19:                                  ; preds = %17, %16, %14, %9
  %18 = ptrtoint ptr %1 to i64
  %19 = and i64 %18, 1
  %.not23 = icmp eq i64 %19, 0
  br i1 %.not23, label %20, label %lean_inc.exit

20:                                               ; preds = %lean_inc.exit19
  %.val.i20 = load i32, ptr %1, align 4, !tbaa !4
  %21 = icmp sgt i32 %.val.i20, 0
  br i1 %21, label %22, label %24, !prof !13

22:                                               ; preds = %20
  %23 = add nuw i32 %.val.i20, 1
  store i32 %23, ptr %1, align 4, !tbaa !4
  br label %lean_inc.exit

24:                                               ; preds = %20
  %.not.i21 = icmp eq i32 %.val.i20, 0
  br i1 %.not.i21, label %lean_inc.exit, label %25

25:                                               ; preds = %24
  tail call void @lean_inc_ref_cold(ptr noundef nonnull %1) #4
  br label %lean_inc.exit

lean_inc.exit:                                    ; preds = %25, %24, %22, %lean_inc.exit19
  tail call void @lean_inc_heartbeat() #4
  %26 = tail call noalias ptr @mi_malloc_small(i64 noundef 64) #4
  %27 = icmp eq ptr %26, null
  br i1 %27, label %28, label %lean_alloc_closure.exit

28:                                               ; preds = %lean_inc.exit
  tail call void @lean_internal_panic_out_of_memory() #5
  unreachable

lean_alloc_closure.exit:                          ; preds = %lean_inc.exit
  %29 = getelementptr inbounds nuw i8, ptr %26, i64 4
  store i32 1, ptr %26, align 4, !tbaa !4
  store i32 -184549312, ptr %29, align 4
  %30 = getelementptr inbounds nuw i8, ptr %26, i64 8
  store ptr @l_Lean_Meta_visitLambda_visit___rarg___lambda__1, ptr %30, align 8, !tbaa !9
  %31 = getelementptr inbounds nuw i8, ptr %26, i64 16
  store i16 6, ptr %31, align 8, !tbaa !11
  %32 = getelementptr inbounds nuw i8, ptr %26, i64 18
  store i16 5, ptr %32, align 2, !tbaa !11
  %33 = getelementptr inbounds nuw i8, ptr %26, i64 24
  store ptr %0, ptr %33, align 8, !tbaa !9
  %34 = getelementptr inbounds nuw i8, ptr %26, i64 32
  store ptr %1, ptr %34, align 8, !tbaa !9
  %35 = getelementptr inbounds nuw i8, ptr %26, i64 40
  store ptr %2, ptr %35, align 8, !tbaa !9
  %36 = getelementptr inbounds nuw i8, ptr %26, i64 48
  store ptr %3, ptr %36, align 8, !tbaa !9
  %37 = getelementptr inbounds nuw i8, ptr %26, i64 56
  store ptr %4, ptr %37, align 8, !tbaa !9
  %38 = tail call ptr @l_Lean_Meta_withLocalDecl___at_Lean_Meta_visitLambda_visit___spec__1___rarg(ptr noundef %1, ptr noundef %2, ptr nonnull poison, ptr noundef %5, i8 noundef zeroext %6, ptr noundef %7, ptr noundef nonnull %26, i8 noundef zeroext 0)
  ret ptr %38
}